target datalayout = "e-m:e-p270:32:32-p271:32:32-p272:64:64-i64:64-i128:128-f80:128-n8:16:32:64-S128"
target triple = "x86_64-pc-linux-gnu"

%struct.jdwpPacket = type { %union.anon }
%union.anon = type { %struct.jdwpCmdPacket }
%struct.jdwpCmdPacket = type { i32, i32, i8, i8, i8, ptr }
%struct.PacketInputStream = type { ptr, i32, i16, %struct.jdwpPacket, ptr }

; Function Attrs: nounwind uwtable
define hidden void @inStream_init(ptr noundef %0, ptr noundef byval(%struct.jdwpPacket) align 8 %1) #0 {
  %3 = alloca ptr, align 8
  store ptr %0, ptr %3, align 8
  %4 = load ptr, ptr %3, align 8
  %5 = getelementptr inbounds %struct.PacketInputStream, ptr %4, i32 0, i32 3
  call void @llvm.memcpy.p0.p0.i64(ptr align 8 %5, ptr align 8 %1, i64 24, i1 false)
  %6 = load ptr, ptr %3, align 8
  %7 = getelementptr inbounds %struct.PacketInputStream, ptr %6, i32 0, i32 2
  store i16 0, ptr %7, align 4
  %8 = getelementptr inbounds %struct.jdwpPacket, ptr %1, i32 0, i32 0
  %9 = getelementptr inbounds %struct.jdwpCmdPacket, ptr %8, i32 0, i32 0
  %10 = load i32, ptr %9, align 8
  %11 = sub nsw i32 %10, 11
  %12 = load ptr, ptr %3, align 8
  %13 = getelementptr inbounds %struct.PacketInputStream, ptr %12, i32 0, i32 1
  store i32 %11, ptr %13, align 8
  %14 = getelementptr inbounds %struct.jdwpPacket, ptr %1, i32 0, i32 0
  %15 = getelementptr inbounds %struct.jdwpCmdPacket, ptr %14, i32 0, i32 5
  %16 = load ptr, ptr %15, align 8
  %17 = load ptr, ptr %3, align 8
  %18 = getelementptr inbounds %struct.PacketInputStream, ptr %17, i32 0, i32 0
  store ptr %16, ptr %18, align 8
  %19 = call ptr @bagCreateBag(i32 noundef 8, i32 noundef 50)
  %20 = load ptr, ptr %3, align 8
  %21 = getelementptr inbounds %struct.PacketInputStream, ptr %20, i32 0, i32 4
  store ptr %19, ptr %21, align 8
  %22 = load ptr, ptr %3, align 8
  %23 = getelementptr inbounds %struct.PacketInputStream, ptr %22, i32 0, i32 4
  %24 = load ptr, ptr %23, align 8
  %25 = icmp eq ptr %24, null
  br i1 %25, label %26, label %29

26:                                               ; preds = %2
  %27 = load ptr, ptr %3, align 8
  %28 = getelementptr inbounds %struct.PacketInputStream, ptr %27, i32 0, i32 2
  store i16 110, ptr %28, align 4
  br label %29

29:                                               ; preds = %26, %2
  ret void
}