; Function Attrs: nounwind uwtable
define hidden void @inStream_init(ptr nocapture noundef writeonly %0, ptr nocapture noundef readonly byval(%struct.jdwpPacket) align 8 %1) local_unnamed_addr #0 {
  %3 = getelementptr inbounds i8, ptr %0, i64 16
  call void @llvm.memcpy.p0.p0.i64(ptr noundef nonnull align 8 dereferenceable(24) %3, ptr noundef nonnull align 8 dereferenceable(24) %1, i64 24, i1 false)
  %4 = getelementptr inbounds i8, ptr %0, i64 12
  store i16 0, ptr %4, align 4
  %5 = load i32, ptr %1, align 8
  %6 = add nsw i32 %5, -11
  %7 = getelementptr inbounds i8, ptr %0, i64 8
  store i32 %6, ptr %7, align 8
  %8 = getelementptr inbounds i8, ptr %1, i64 16
  %9 = load ptr, ptr %8, align 8
  store ptr %9, ptr %0, align 8
  %10 = tail call ptr @bagCreateBag(i32 noundef 8, i32 noundef 50) #9
  %11 = getelementptr inbounds i8, ptr %0, i64 40
  store ptr %10, ptr %11, align 8
  %12 = icmp eq ptr %10, null
  br i1 %12, label %13, label %14

13:                                               ; preds = %2
  store i16 110, ptr %4, align 4
  br label %14

14:                                               ; preds = %13, %2
  ret void
}